; Function Attrs: mustprogress nofree norecurse nosync nounwind willreturn memory(none) uwtable
define internal i32 @get_cbrt_h(i16 noundef signext %0, i32 noundef %1) #9 {
  %3 = sdiv i32 %1, 2
  %4 = sitofp i32 %3 to double
  %5 = icmp sgt i16 %0, 0
  %6 = tail call i16 @llvm.abs.i16(i16 %0, i1 false)
  %7 = uitofp i16 %6 to double
  %8 = tail call nsz double @cbrt(double noundef %7) #18
  %9 = fmul nsz double %8, %4
  %10 = tail call nsz double @cbrt(double noundef 3.276700e+04) #18
  %11 = fdiv nsz double %9, %10
  %12 = select nsz i1 %5, double -1.000000e+00, double 1.000000e+00
  %13 = tail call nsz double @llvm.fmuladd.f64(double %12, double %11, double %4)
  %14 = fptosi double %13 to i32
  ret i32 %14
}